target datalayout = "e-m:e-p270:32:32-p271:32:32-p272:64:64-i64:64-i128:128-f80:128-n8:16:32:64-S128"
target triple = "x86_64-pc-linux-gnu"

@.str.11 = private unnamed_addr constant [33 x i8] c"%s:%d  expected %ld-%ld, got %ld\00", align 1

; Function Attrs: nounwind uwtable
define void @assert_interval(i64 noundef %0, i64 noundef %1, i64 noundef %2, ptr noundef %3, i32 noundef %4) #0 {
  %6 = alloca i64, align 8
  %7 = alloca i64, align 8
  %8 = alloca i64, align 8
  %9 = alloca ptr, align 8
  %10 = alloca i32, align 4
  store i64 %0, ptr %6, align 8, !tbaa !12
  store i64 %1, ptr %7, align 8, !tbaa !12
  store i64 %2, ptr %8, align 8, !tbaa !12
  store ptr %3, ptr %9, align 8, !tbaa !3
  store i32 %4, ptr %10, align 4, !tbaa !8
  %11 = load i64, ptr %8, align 8, !tbaa !12
  %12 = load i64, ptr %6, align 8, !tbaa !12
  %13 = icmp slt i64 %11, %12
  br i1 %13, label %18, label %14

14:                                               ; preds = %5
  %15 = load i64, ptr %8, align 8, !tbaa !12
  %16 = load i64, ptr %7, align 8, !tbaa !12
  %17 = icmp sgt i64 %15, %16
  br i1 %17, label %18, label %24

18:                                               ; preds = %14, %5
  %19 = load ptr, ptr %9, align 8, !tbaa !3
  %20 = load i32, ptr %10, align 4, !tbaa !8
  %21 = load i64, ptr %6, align 8, !tbaa !12
  %22 = load i64, ptr %7, align 8, !tbaa !12
  %23 = load i64, ptr %8, align 8, !tbaa !12
  call void (ptr, ...) @CTEST_ERR(ptr noundef @.str.11, ptr noundef %19, i32 noundef %20, i64 noundef %21, i64 noundef %22, i64 noundef %23)
  br label %24

24:                                               ; preds = %18, %14
  ret void
}