; Function Attrs: nounwind uwtable
define void @assert_interval(i64 noundef %0, i64 noundef %1, i64 noundef %2, ptr noundef %3, i32 noundef %4) local_unnamed_addr #6 {
  %6 = icmp slt i64 %2, %0
  %7 = icmp sgt i64 %2, %1
  %or.cond = or i1 %6, %7
  br i1 %or.cond, label %8, label %9

8:                                                ; preds = %5
  tail call void (ptr, ...) @CTEST_ERR(ptr noundef nonnull @.str.11, ptr noundef %3, i32 noundef %4, i64 noundef %0, i64 noundef %1, i64 noundef %2)
  unreachable

9:                                                ; preds = %5
  ret void
}